(dp1
S'url'
p2
S'https://wsaa.afip.gov.ar/ws/services/LoginCms?wsdl'
p3
sS'services'
p4
(dp5
VLoginCMSService
p6
(dp7
S'documentation'
p8
S''
sS'ports'
p9
(dp10
VLoginCms
p11
(dp12
S'port_type_name'
p13
S'LoginCMS'
p14
sS'operations'
p15
(dp16
VloginCms
p17
(dp18
S'input'
p19
(dp20
S'loginCms'
p21
ccopy_reg
_reconstructor
p22
(cpysimplesoap.simplexml
OrderedDict
p23
c__builtin__
dict
p24
(dp25
Vin0
p26
c__builtin__
unicode
p27
stRp28
(dp29
S'array'
p30
I00
sS'_OrderedDict__keys'
p31
(lp32
g26
asbssg8
V
sS'name'
p33
g17
sS'output'
p34
(dp35
S'loginCmsResponse'
p36
g22
(g23
g24
(dp37
VloginCmsReturn
p38
g27
stRp39
(dp40
g30
I00
sg31
(lp41
g38
asbssssS'location'
p42
Vhttps://wsaa.afip.gov.ar/ws/services/LoginCms
p43
sS'service_name'
p44
g6
sS'soap_uri'
p45
Vhttp://schemas.xmlsoap.org/wsdl/soap/
p46
sS'soap_ver'
p47
S'soap11'
p48
sS'transport'
p49
Vhttp://schemas.xmlsoap.org/soap/http
p50
sssssS'version'
p51
S'1.03f'
p52
sS'namespace'
p53
Vhttp://wsaa.view.sua.dvadac.desein.afip.gov
p54
sg8
V
s.